; Function Attrs: mustprogress uwtable
define void @_ZNK8LightGBM4GBDT16PredictLeafIndexEPKdPd(ptr noundef nonnull readonly align 8 captures(none) dereferenceable(648) %0, ptr noundef %1, ptr noundef writeonly captures(none) %2) unnamed_addr #3 align 2 {
  %4 = getelementptr inbounds nuw i8, ptr %0, i64 424
  %5 = load i32, ptr %4, align 8, !tbaa !119
  %6 = getelementptr inbounds nuw i8, ptr %0, i64 408
  %7 = load i32, ptr %6, align 8, !tbaa !4
  %8 = mul nsw i32 %7, %5
  %9 = getelementptr inbounds nuw i8, ptr %0, i64 420
  %10 = load i32, ptr %9, align 4, !tbaa !120
  %11 = mul nsw i32 %10, %7
  %12 = getelementptr inbounds nuw i8, ptr %0, i64 224
  %13 = load ptr, ptr %12, align 8, !tbaa !121
  %14 = sext i32 %8 to i64
  %15 = getelementptr inbounds %"class.std::unique_ptr.83", ptr %13, i64 %14
  %16 = icmp sgt i32 %11, 0
  br i1 %16, label %.lr.ph.preheader, label %._crit_edge

.lr.ph.preheader:                                 ; preds = %3
  %wide.trip.count = zext nneg i32 %11 to i64
  br label %.lr.ph

._crit_edge:                                      ; preds = %_ZNK8LightGBM4Tree16PredictLeafIndexEPKd.exit, %3
  ret void

.lr.ph:                                           ; preds = %.lr.ph.preheader, %_ZNK8LightGBM4Tree16PredictLeafIndexEPKd.exit
  %indvars.iv = phi i64 [ 0, %.lr.ph.preheader ], [ %indvars.iv.next, %_ZNK8LightGBM4Tree16PredictLeafIndexEPKd.exit ]
  %17 = getelementptr inbounds nuw %"class.std::unique_ptr.83", ptr %15, i64 %indvars.iv
  %18 = load ptr, ptr %17, align 8, !tbaa !126
  %19 = getelementptr inbounds nuw i8, ptr %18, i64 12
  %20 = load i32, ptr %19, align 4, !tbaa !150
  %21 = icmp sgt i32 %20, 1
  br i1 %21, label %22, label %_ZNK8LightGBM4Tree16PredictLeafIndexEPKd.exit

22:                                               ; preds = %.lr.ph
  %23 = tail call noundef i32 @_ZNK8LightGBM4Tree7GetLeafEPKd(ptr noundef nonnull align 8 dereferenceable(648) %18, ptr noundef %1)
  %24 = sitofp i32 %23 to double
  br label %_ZNK8LightGBM4Tree16PredictLeafIndexEPKd.exit

_ZNK8LightGBM4Tree16PredictLeafIndexEPKd.exit:    ; preds = %.lr.ph, %22
  %.0.i = phi double [ %24, %22 ], [ 0.000000e+00, %.lr.ph ]
  %25 = getelementptr inbounds nuw double, ptr %2, i64 %indvars.iv
  store double %.0.i, ptr %25, align 8, !tbaa !155
  %indvars.iv.next = add nuw nsw i64 %indvars.iv, 1
  %exitcond.not = icmp eq i64 %indvars.iv.next, %wide.trip.count
  br i1 %exitcond.not, label %._crit_edge, label %.lr.ph, !llvm.loop !193
}